; ModuleID = '43/1345.c'
source_filename = "43/1345.c"
target datalayout = "e-m:e-p270:32:32-p271:32:32-p272:64:64-i64:64-f80:128-n8:16:32:64-S128"
target triple = "x86_64-pc-linux-gnu"

@.str = private unnamed_addr constant [3 x i8] c"%d\00", align 1
@.str.1 = private unnamed_addr constant [7 x i8] c"%d %d\0A\00", align 1

; Function Attrs: noinline nounwind uwtable
define dso_local i32 @main() #0 {
  %1 = alloca i32, align 4
  %2 = alloca i32, align 4
  %3 = alloca i32, align 4
  %4 = alloca i32, align 4
  %5 = alloca [101 x i8], align 16
  store i32 0, i32* %1, align 4
  %6 = bitcast [101 x i8]* %5 to i8*
  call void @llvm.memset.p0i8.i64(i8* align 16 %6, i8 0, i64 101, i1 false)
  %7 = call i32 (i8*, ...) @__isoc99_scanf(i8* getelementptr inbounds ([3 x i8], [3 x i8]* @.str, i64 0, i64 0), i32* %2)
  store i32 2, i32* %4, align 4
  br label %8

8:                                                ; preds = %16, %0
  %9 = load i32, i32* %4, align 4
  %10 = load i32, i32* %2, align 4
  %11 = icmp sle i32 %9, %10
  br i1 %11, label %12, label %19

12:                                               ; preds = %8
  %13 = load i32, i32* %4, align 4
  %14 = sext i32 %13 to i64
  %15 = getelementptr inbounds [101 x i8], [101 x i8]* %5, i64 0, i64 %14
  store i8 1, i8* %15, align 1
  br label %16

16:                                               ; preds = %12
  %17 = load i32, i32* %4, align 4
  %18 = add nsw i32 %17, 1
  store i32 %18, i32* %4, align 4
  br label %8

19:                                               ; preds = %8
  store i32 2, i32* %4, align 4
  br label %20

20:                                               ; preds = %49, %19
  %21 = load i32, i32* %4, align 4
  %22 = load i32, i32* %2, align 4
  %23 = sdiv i32 %22, 2
  %24 = icmp sle i32 %21, %23
  br i1 %24, label %25, label %52

25:                                               ; preds = %20
  %26 = load i32, i32* %4, align 4
  %27 = sext i32 %26 to i64
  %28 = getelementptr inbounds [101 x i8], [101 x i8]* %5, i64 0, i64 %27
  %29 = load i8, i8* %28, align 1
  %30 = icmp ne i8 %29, 0
  br i1 %30, label %31, label %48

31:                                               ; preds = %25
  %32 = load i32, i32* %4, align 4
  %33 = load i32, i32* %4, align 4
  %34 = add nsw i32 %32, %33
  store i32 %34, i32* %3, align 4
  br label %35

35:                                               ; preds = %43, %31
  %36 = load i32, i32* %3, align 4
  %37 = load i32, i32* %2, align 4
  %38 = icmp sle i32 %36, %37
  br i1 %38, label %39, label %47

39:                                               ; preds = %35
  %40 = load i32, i32* %3, align 4
  %41 = sext i32 %40 to i64
  %42 = getelementptr inbounds [101 x i8], [101 x i8]* %5, i64 0, i64 %41
  store i8 0, i8* %42, align 1
  br label %43

43:                                               ; preds = %39
  %44 = load i32, i32* %4, align 4
  %45 = load i32, i32* %3, align 4
  %46 = add nsw i32 %45, %44
  store i32 %46, i32* %3, align 4
  br label %35

47:                                               ; preds = %35
  br label %48

48:                                               ; preds = %47, %25
  br label %49

49:                                               ; preds = %48
  %50 = load i32, i32* %4, align 4
  %51 = add nsw i32 %50, 1
  store i32 %51, i32* %4, align 4
  br label %20

52:                                               ; preds = %20
  store i32 2, i32* %3, align 4
  br label %53

53:                                               ; preds = %81, %52
  %54 = load i32, i32* %3, align 4
  %55 = load i32, i32* %2, align 4
  %56 = sdiv i32 %55, 2
  %57 = icmp sle i32 %54, %56
  br i1 %57, label %58, label %84

58:                                               ; preds = %53
  %59 = load i32, i32* %3, align 4
  %60 = sext i32 %59 to i64
  %61 = getelementptr inbounds [101 x i8], [101 x i8]* %5, i64 0, i64 %60
  %62 = load i8, i8* %61, align 1
  %63 = sext i8 %62 to i32
  %64 = icmp ne i32 %63, 0
  br i1 %64, label %65, label %80

65:                                               ; preds = %58
  %66 = load i32, i32* %2, align 4
  %67 = load i32, i32* %3, align 4
  %68 = sub nsw i32 %66, %67
  %69 = sext i32 %68 to i64
  %70 = getelementptr inbounds [101 x i8], [101 x i8]* %5, i64 0, i64 %69
  %71 = load i8, i8* %70, align 1
  %72 = sext i8 %71 to i32
  %73 = icmp ne i32 %72, 0
  br i1 %73, label %74, label %80

74:                                               ; preds = %65
  %75 = load i32, i32* %3, align 4
  %76 = load i32, i32* %2, align 4
  %77 = load i32, i32* %3, align 4
  %78 = sub nsw i32 %76, %77
  %79 = call i32 (i8*, ...) @printf(i8* getelementptr inbounds ([7 x i8], [7 x i8]* @.str.1, i64 0, i64 0), i32 %75, i32 %78)
  br label %80

80:                                               ; preds = %74, %65, %58
  br label %81

81:                                               ; preds = %80
  %82 = load i32, i32* %3, align 4
  %83 = add nsw i32 %82, 1
  store i32 %83, i32* %3, align 4
  br label %53

84:                                               ; preds = %53
  ret i32 0
}

; Function Attrs: argmemonly nounwind willreturn
declare void @llvm.memset.p0i8.i64(i8* nocapture writeonly, i8, i64, i1 immarg) #1

declare dso_local i32 @__isoc99_scanf(i8*, ...) #2

declare dso_local i32 @printf(i8*, ...) #2


!llvm.module.flags = !{!0}
!llvm.ident = !{!1}

!0 = !{i32 1, !"wchar_size", i32 4}
!1 = !{!"clang version 10.0.0-4ubuntu1 "}
